; Function Attrs: mustprogress uwtable
define dso_local void @_ZNK42cmInstallImportedRuntimeArtifactsGenerator14GetDestinationERKNSt7__cxx1112basic_stringIcSt11char_traitsIcESaIcEEE(ptr dead_on_unwind noalias writable sret(%"class.std::__cxx11::basic_string") align 8 %0, ptr noundef nonnull align 8 dereferenceable(273) %1, ptr noundef nonnull align 8 dereferenceable(32) %2) local_unnamed_addr #4 align 2 personality ptr @__gxx_personality_v0 {
  %4 = alloca %"class.std::__cxx11::basic_string", align 8
  %5 = alloca %"class.std::__cxx11::basic_string", align 8
  %6 = getelementptr inbounds i8, ptr %1, i64 112
  call void @_ZNSt7__cxx1112basic_stringIcSt11char_traitsIcESaIcEEC1ERKS4_(ptr noundef nonnull align 8 dereferenceable(32) %4, ptr noundef nonnull align 8 dereferenceable(32) %6)
  %7 = getelementptr inbounds i8, ptr %1, i64 232
  %8 = load ptr, ptr %7, align 8
  %9 = invoke noundef ptr @_ZNK17cmGeneratorTarget17GetLocalGeneratorEv(ptr noundef nonnull align 8 dereferenceable(2728) %8)
          to label %10 unwind label %12

10:                                               ; preds = %3
  call void @_ZNSt7__cxx1112basic_stringIcSt11char_traitsIcESaIcEEC1Ev(ptr noundef nonnull align 8 dereferenceable(32) %5) #16
  invoke void @_ZN21cmGeneratorExpression8EvaluateENSt7__cxx1112basic_stringIcSt11char_traitsIcESaIcEEEP16cmLocalGeneratorRKS5_PK17cmGeneratorTargetP31cmGeneratorExpressionDAGCheckerSC_S9_(ptr dead_on_unwind writable sret(%"class.std::__cxx11::basic_string") align 8 %0, ptr noundef nonnull %4, ptr noundef %9, ptr noundef nonnull align 8 dereferenceable(32) %2, ptr noundef null, ptr noundef null, ptr noundef null, ptr noundef nonnull align 8 dereferenceable(32) %5)
          to label %11 unwind label %14

11:                                               ; preds = %10
  call void @_ZNSt7__cxx1112basic_stringIcSt11char_traitsIcESaIcEED1Ev(ptr noundef nonnull align 8 dereferenceable(32) %5) #16
  call void @_ZNSt7__cxx1112basic_stringIcSt11char_traitsIcESaIcEED1Ev(ptr noundef nonnull align 8 dereferenceable(32) %4) #16
  ret void

12:                                               ; preds = %3
  %13 = landingpad { ptr, i32 }
          cleanup
  br label %16

14:                                               ; preds = %10
  %15 = landingpad { ptr, i32 }
          cleanup
  call void @_ZNSt7__cxx1112basic_stringIcSt11char_traitsIcESaIcEED1Ev(ptr noundef nonnull align 8 dereferenceable(32) %5) #16
  br label %16

16:                                               ; preds = %14, %12
  %.pn = phi { ptr, i32 } [ %15, %14 ], [ %13, %12 ]
  call void @_ZNSt7__cxx1112basic_stringIcSt11char_traitsIcESaIcEED1Ev(ptr noundef nonnull align 8 dereferenceable(32) %4) #16
  resume { ptr, i32 } %.pn
}